target datalayout = "e-m:e-p270:32:32-p271:32:32-p272:64:64-i64:64-i128:128-f80:128-n8:16:32:64-S128"
target triple = "x86_64-pc-linux-gnu"

%struct.stbtt__buf = type { ptr, i32, i32 }
%struct.stbtt_fontinfo = type { ptr, ptr, i32, i32, i32, i32, i32, i32, i32, i32, i32, i32, i32, i32, %struct.stbtt__buf, %struct.stbtt__buf, %struct.stbtt__buf, %struct.stbtt__buf, %struct.stbtt__buf, %struct.stbtt__buf }

; Function Attrs: nounwind uwtable
define signext i16 @ttSHORT(ptr noundef %0) #0 {
  %2 = alloca ptr, align 8
  store ptr %0, ptr %2, align 8, !tbaa !25
  %3 = load ptr, ptr %2, align 8, !tbaa !25
  %4 = getelementptr inbounds i8, ptr %3, i64 0
  %5 = load i8, ptr %4, align 1, !tbaa !13
  %6 = zext i8 %5 to i32
  %7 = mul nsw i32 %6, 256
  %8 = load ptr, ptr %2, align 8, !tbaa !25
  %9 = getelementptr inbounds i8, ptr %8, i64 1
  %10 = load i8, ptr %9, align 1, !tbaa !13
  %11 = zext i8 %10 to i32
  %12 = add nsw i32 %7, %11
  %13 = trunc i32 %12 to i16
  ret i16 %13
}

; Function Attrs: nounwind uwtable
define float @stbtt_ScaleForPixelHeight(ptr noundef %0, float noundef %1) #0 {
  %3 = alloca ptr, align 8
  %4 = alloca float, align 4
  %5 = alloca i32, align 4
  store ptr %0, ptr %3, align 8, !tbaa !28
  store float %1, ptr %4, align 4, !tbaa !67
  call void @llvm.lifetime.start.p0(i64 4, ptr %5) #8
  %6 = load ptr, ptr %3, align 8, !tbaa !28
  %7 = getelementptr inbounds nuw %struct.stbtt_fontinfo, ptr %6, i32 0, i32 1
  %8 = load ptr, ptr %7, align 8, !tbaa !32
  %9 = load ptr, ptr %3, align 8, !tbaa !28
  %10 = getelementptr inbounds nuw %struct.stbtt_fontinfo, ptr %9, i32 0, i32 7
  %11 = load i32, ptr %10, align 4, !tbaa !37
  %12 = sext i32 %11 to i64
  %13 = getelementptr inbounds i8, ptr %8, i64 %12
  %14 = getelementptr inbounds i8, ptr %13, i64 4
  %15 = call signext i16 @ttSHORT(ptr noundef %14)
  %16 = sext i16 %15 to i32
  %17 = load ptr, ptr %3, align 8, !tbaa !28
  %18 = getelementptr inbounds nuw %struct.stbtt_fontinfo, ptr %17, i32 0, i32 1
  %19 = load ptr, ptr %18, align 8, !tbaa !32
  %20 = load ptr, ptr %3, align 8, !tbaa !28
  %21 = getelementptr inbounds nuw %struct.stbtt_fontinfo, ptr %20, i32 0, i32 7
  %22 = load i32, ptr %21, align 4, !tbaa !37
  %23 = sext i32 %22 to i64
  %24 = getelementptr inbounds i8, ptr %19, i64 %23
  %25 = getelementptr inbounds i8, ptr %24, i64 6
  %26 = call signext i16 @ttSHORT(ptr noundef %25)
  %27 = sext i16 %26 to i32
  %28 = sub nsw i32 %16, %27
  store i32 %28, ptr %5, align 4, !tbaa !14
  %29 = load float, ptr %4, align 4, !tbaa !67
  %30 = load i32, ptr %5, align 4, !tbaa !14
  %31 = sitofp i32 %30 to float
  %32 = fdiv float %29, %31
  call void @llvm.lifetime.end.p0(i64 4, ptr %5) #8
  ret float %32
}