; Function Attrs: mustprogress nofree norecurse nosync nounwind willreturn memory(read, inaccessiblemem: none) uwtable
define float @stbtt_ScaleForPixelHeight(ptr noundef readonly captures(none) %0, float noundef %1) local_unnamed_addr #1 {
  %3 = getelementptr inbounds nuw i8, ptr %0, i64 8
  %4 = load ptr, ptr %3, align 8, !tbaa !23
  %5 = getelementptr inbounds nuw i8, ptr %0, i64 36
  %6 = load i32, ptr %5, align 4, !tbaa !28
  %7 = sext i32 %6 to i64
  %8 = getelementptr inbounds i8, ptr %4, i64 %7
  %9 = getelementptr inbounds nuw i8, ptr %8, i64 4
  %10 = load i8, ptr %9, align 1, !tbaa !12
  %11 = zext i8 %10 to i16
  %12 = shl nuw i16 %11, 8
  %13 = getelementptr inbounds nuw i8, ptr %8, i64 5
  %14 = load i8, ptr %13, align 1, !tbaa !12
  %15 = zext i8 %14 to i16
  %16 = or disjoint i16 %12, %15
  %17 = sext i16 %16 to i32
  %18 = getelementptr inbounds nuw i8, ptr %8, i64 6
  %19 = load i8, ptr %18, align 1, !tbaa !12
  %20 = zext i8 %19 to i16
  %21 = shl nuw i16 %20, 8
  %22 = getelementptr inbounds nuw i8, ptr %8, i64 7
  %23 = load i8, ptr %22, align 1, !tbaa !12
  %24 = zext i8 %23 to i16
  %25 = or disjoint i16 %21, %24
  %26 = sext i16 %25 to i32
  %27 = sub nsw i32 %17, %26
  %28 = sitofp i32 %27 to float
  %29 = fdiv float %1, %28
  ret float %29
}